; Function Attrs: mustprogress uwtable
define hidden noundef i32 @_ZN4ncnn3Net10load_paramEPKh(ptr noundef nonnull align 8 dereferenceable(80) %0, ptr noundef %1) local_unnamed_addr #2 align 2 personality ptr @__gxx_personality_v0 {
  %3 = alloca ptr, align 8
  %4 = alloca %"class.ncnn::DataReaderFromMemory", align 8
  call void @llvm.lifetime.start.p0(i64 8, ptr nonnull %3) #26
  store ptr %1, ptr %3, align 8, !tbaa !130
  call void @llvm.lifetime.start.p0(i64 16, ptr nonnull %4) #26
  call void @_ZN4ncnn20DataReaderFromMemoryC1ERPKh(ptr noundef nonnull align 8 dereferenceable(16) %4, ptr noundef nonnull align 8 dereferenceable(8) %3)
  %5 = invoke noundef i32 @_ZN4ncnn3Net14load_param_binERKNS_10DataReaderE(ptr noundef nonnull align 8 dereferenceable(80) %0, ptr noundef nonnull align 8 dereferenceable(8) %4)
          to label %6 unwind label %12

6:                                                ; preds = %2
  %7 = load ptr, ptr %3, align 8, !tbaa !130
  %8 = ptrtoint ptr %7 to i64
  %9 = ptrtoint ptr %1 to i64
  %10 = sub i64 %8, %9
  %11 = trunc i64 %10 to i32
  call void @_ZN4ncnn20DataReaderFromMemoryD1Ev(ptr noundef nonnull align 8 dereferenceable(16) %4) #26
  call void @llvm.lifetime.end.p0(i64 16, ptr nonnull %4) #26
  call void @llvm.lifetime.end.p0(i64 8, ptr nonnull %3) #26
  ret i32 %11

12:                                               ; preds = %2
  %13 = landingpad { ptr, i32 }
          cleanup
  call void @_ZN4ncnn20DataReaderFromMemoryD1Ev(ptr noundef nonnull align 8 dereferenceable(16) %4) #26
  call void @llvm.lifetime.end.p0(i64 16, ptr nonnull %4) #26
  call void @llvm.lifetime.end.p0(i64 8, ptr nonnull %3) #26
  resume { ptr, i32 } %13
}